target datalayout = "e-m:e-p270:32:32-p271:32:32-p272:64:64-i64:64-i128:128-f80:128-n8:16:32:64-S128"
target triple = "x86_64-pc-linux-gnu"

%struct.__loadu_ps = type { <4 x float> }
%struct.__storeu_ps = type { <4 x float> }

; Function Attrs: alwaysinline nounwind uwtable
define available_externally void @_mm_storeu_ps(ptr noundef %0, <4 x float> noundef %1) #2 {
  %3 = alloca ptr, align 8
  %4 = alloca <4 x float>, align 16
  store ptr %0, ptr %3, align 8, !tbaa !21
  store <4 x float> %1, ptr %4, align 16, !tbaa !12
  %5 = load <4 x float>, ptr %4, align 16, !tbaa !12
  %6 = load ptr, ptr %3, align 8, !tbaa !21
  %7 = getelementptr inbounds nuw %struct.__storeu_ps, ptr %6, i32 0, i32 0
  store <4 x float> %5, ptr %7, align 1, !tbaa !12
  ret void
}

; Function Attrs: alwaysinline nounwind uwtable
define available_externally <4 x float> @_mm_castsi128_ps(<2 x i64> noundef %0) #2 {
  %2 = alloca <2 x i64>, align 16
  store <2 x i64> %0, ptr %2, align 16, !tbaa !12
  %3 = load <2 x i64>, ptr %2, align 16, !tbaa !12
  %4 = bitcast <2 x i64> %3 to <4 x float>
  ret <4 x float> %4
}

; Function Attrs: alwaysinline nounwind uwtable
define available_externally <2 x i64> @_mm_castps_si128(<4 x float> noundef %0) #2 {
  %2 = alloca <4 x float>, align 16
  store <4 x float> %0, ptr %2, align 16, !tbaa !12
  %3 = load <4 x float>, ptr %2, align 16, !tbaa !12
  %4 = bitcast <4 x float> %3 to <2 x i64>
  ret <2 x i64> %4
}

; Function Attrs: alwaysinline nounwind uwtable
define available_externally <4 x float> @_mm_loadu_ps(ptr noundef %0) #2 {
  %2 = alloca ptr, align 8
  store ptr %0, ptr %2, align 8, !tbaa !21
  %3 = load ptr, ptr %2, align 8, !tbaa !21
  %4 = getelementptr inbounds nuw %struct.__loadu_ps, ptr %3, i32 0, i32 0
  %5 = load <4 x float>, ptr %4, align 1, !tbaa !12
  ret <4 x float> %5
}

; Function Attrs: nounwind uwtable
define void @stbir__encode_float_linear_AR(ptr noundef %0, i32 noundef %1, ptr noundef %2) #0 {
  %4 = alloca ptr, align 8
  %5 = alloca i32, align 4
  %6 = alloca ptr, align 8
  %7 = alloca ptr, align 8
  %8 = alloca ptr, align 8
  %9 = alloca ptr, align 8
  %10 = alloca <4 x float>, align 16
  %11 = alloca <4 x float>, align 16
  %12 = alloca i32, align 4
  %13 = alloca <4 x float>, align 16
  %14 = alloca float, align 4
  store ptr %0, ptr %4, align 8, !tbaa !3
  store i32 %1, ptr %5, align 4, !tbaa !26
  store ptr %2, ptr %6, align 8, !tbaa !21
  call void @llvm.lifetime.start.p0(i64 8, ptr %7) #12
  %15 = load ptr, ptr %4, align 8, !tbaa !3
  store ptr %15, ptr %7, align 8, !tbaa !21
  call void @llvm.lifetime.start.p0(i64 8, ptr %8) #12
  %16 = load ptr, ptr %7, align 8, !tbaa !21
  %17 = load i32, ptr %5, align 4, !tbaa !26
  %18 = sext i32 %17 to i64
  %19 = getelementptr inbounds float, ptr %16, i64 %18
  store ptr %19, ptr %8, align 8, !tbaa !21
  %20 = load i32, ptr %5, align 4, !tbaa !26
  %21 = icmp sge i32 %20, 8
  br i1 %21, label %22, label %75

22:                                               ; preds = %3
  call void @llvm.lifetime.start.p0(i64 8, ptr %9) #12
  %23 = load ptr, ptr %6, align 8, !tbaa !21
  %24 = load i32, ptr %5, align 4, !tbaa !26
  %25 = sext i32 %24 to i64
  %26 = getelementptr inbounds float, ptr %23, i64 %25
  %27 = getelementptr inbounds float, ptr %26, i64 -8
  store ptr %27, ptr %9, align 8, !tbaa !21
  %28 = load ptr, ptr %8, align 8, !tbaa !21
  %29 = getelementptr inbounds float, ptr %28, i64 -8
  store ptr %29, ptr %8, align 8, !tbaa !21
  br label %30

30:                                               ; preds = %73, %71, %22
  call void @llvm.lifetime.start.p0(i64 16, ptr %10) #12
  call void @llvm.lifetime.start.p0(i64 16, ptr %11) #12
  %31 = load ptr, ptr %6, align 8, !tbaa !21
  call void asm sideeffect "", "r,~{dirflag},~{fpsr},~{flags}"(ptr %31) #12, !srcloc !488
  %32 = load ptr, ptr %6, align 8, !tbaa !21
  %33 = call <4 x float> @_mm_loadu_ps(ptr noundef %32)
  store <4 x float> %33, ptr %10, align 16, !tbaa !12
  %34 = load ptr, ptr %6, align 8, !tbaa !21
  %35 = getelementptr inbounds float, ptr %34, i64 4
  %36 = call <4 x float> @_mm_loadu_ps(ptr noundef %35)
  store <4 x float> %36, ptr %11, align 16, !tbaa !12
  %37 = load <4 x float>, ptr %10, align 16, !tbaa !12
  %38 = call <2 x i64> @_mm_castps_si128(<4 x float> noundef %37)
  %39 = bitcast <2 x i64> %38 to <4 x i32>
  %40 = shufflevector <4 x i32> %39, <4 x i32> poison, <4 x i32> <i32 1, i32 0, i32 3, i32 2>
  %41 = bitcast <4 x i32> %40 to <2 x i64>
  %42 = call <4 x float> @_mm_castsi128_ps(<2 x i64> noundef %41)
  store <4 x float> %42, ptr %10, align 16, !tbaa !12
  %43 = load <4 x float>, ptr %11, align 16, !tbaa !12
  %44 = call <2 x i64> @_mm_castps_si128(<4 x float> noundef %43)
  %45 = bitcast <2 x i64> %44 to <4 x i32>
  %46 = shufflevector <4 x i32> %45, <4 x i32> poison, <4 x i32> <i32 1, i32 0, i32 3, i32 2>
  %47 = bitcast <4 x i32> %46 to <2 x i64>
  %48 = call <4 x float> @_mm_castsi128_ps(<2 x i64> noundef %47)
  store <4 x float> %48, ptr %11, align 16, !tbaa !12
  %49 = load ptr, ptr %7, align 8, !tbaa !21
  %50 = load <4 x float>, ptr %10, align 16, !tbaa !12
  call void @_mm_storeu_ps(ptr noundef %49, <4 x float> noundef %50)
  %51 = load ptr, ptr %7, align 8, !tbaa !21
  %52 = getelementptr inbounds float, ptr %51, i64 4
  %53 = load <4 x float>, ptr %11, align 16, !tbaa !12
  call void @_mm_storeu_ps(ptr noundef %52, <4 x float> noundef %53)
  %54 = load ptr, ptr %6, align 8, !tbaa !21
  %55 = getelementptr inbounds float, ptr %54, i64 8
  store ptr %55, ptr %6, align 8, !tbaa !21
  %56 = load ptr, ptr %7, align 8, !tbaa !21
  %57 = getelementptr inbounds float, ptr %56, i64 8
  store ptr %57, ptr %7, align 8, !tbaa !21
  %58 = load ptr, ptr %7, align 8, !tbaa !21
  %59 = load ptr, ptr %8, align 8, !tbaa !21
  %60 = icmp ult ptr %58, %59
  br i1 %60, label %61, label %62

61:                                               ; preds = %30
  store i32 3, ptr %12, align 4
  br label %71, !llvm.loop !489

62:                                               ; preds = %30
  %63 = load ptr, ptr %7, align 8, !tbaa !21
  %64 = load ptr, ptr %8, align 8, !tbaa !21
  %65 = getelementptr inbounds float, ptr %64, i64 8
  %66 = icmp eq ptr %63, %65
  br i1 %66, label %67, label %68

67:                                               ; preds = %62
  store i32 2, ptr %12, align 4
  br label %71

68:                                               ; preds = %62
  %69 = load ptr, ptr %8, align 8, !tbaa !21
  store ptr %69, ptr %7, align 8, !tbaa !21
  %70 = load ptr, ptr %9, align 8, !tbaa !21
  store ptr %70, ptr %6, align 8, !tbaa !21
  store i32 0, ptr %12, align 4
  br label %71

71:                                               ; preds = %68, %67, %61
  call void @llvm.lifetime.end.p0(i64 16, ptr %11) #12
  call void @llvm.lifetime.end.p0(i64 16, ptr %10) #12
  %72 = load i32, ptr %12, align 4
  switch i32 %72, label %128 [
    i32 0, label %73
    i32 3, label %30
    i32 2, label %74
  ]

73:                                               ; preds = %71
  br label %30, !llvm.loop !489

74:                                               ; preds = %71
  store i32 1, ptr %12, align 4
  call void @llvm.lifetime.end.p0(i64 8, ptr %9) #12
  br label %125

75:                                               ; preds = %3
  %76 = load ptr, ptr %7, align 8, !tbaa !21
  %77 = getelementptr inbounds float, ptr %76, i64 4
  store ptr %77, ptr %7, align 8, !tbaa !21
  br label %78

78:                                               ; preds = %82, %75
  %79 = load ptr, ptr %7, align 8, !tbaa !21
  %80 = load ptr, ptr %8, align 8, !tbaa !21
  %81 = icmp ule ptr %79, %80
  br i1 %81, label %82, label %99

82:                                               ; preds = %78
  call void @llvm.lifetime.start.p0(i64 16, ptr %13) #12
  %83 = load ptr, ptr %6, align 8, !tbaa !21
  call void asm sideeffect "", "r,~{dirflag},~{fpsr},~{flags}"(ptr %83) #12, !srcloc !490
  %84 = load ptr, ptr %6, align 8, !tbaa !21
  %85 = call <4 x float> @_mm_loadu_ps(ptr noundef %84)
  store <4 x float> %85, ptr %13, align 16, !tbaa !12
  %86 = load <4 x float>, ptr %13, align 16, !tbaa !12
  %87 = call <2 x i64> @_mm_castps_si128(<4 x float> noundef %86)
  %88 = bitcast <2 x i64> %87 to <4 x i32>
  %89 = shufflevector <4 x i32> %88, <4 x i32> poison, <4 x i32> <i32 1, i32 0, i32 3, i32 2>
  %90 = bitcast <4 x i32> %89 to <2 x i64>
  %91 = call <4 x float> @_mm_castsi128_ps(<2 x i64> noundef %90)
  store <4 x float> %91, ptr %13, align 16, !tbaa !12
  %92 = load ptr, ptr %7, align 8, !tbaa !21
  %93 = getelementptr inbounds float, ptr %92, i64 -4
  %94 = load <4 x float>, ptr %13, align 16, !tbaa !12
  call void @_mm_storeu_ps(ptr noundef %93, <4 x float> noundef %94)
  %95 = load ptr, ptr %7, align 8, !tbaa !21
  %96 = getelementptr inbounds float, ptr %95, i64 4
  store ptr %96, ptr %7, align 8, !tbaa !21
  %97 = load ptr, ptr %6, align 8, !tbaa !21
  %98 = getelementptr inbounds float, ptr %97, i64 4
  store ptr %98, ptr %6, align 8, !tbaa !21
  call void @llvm.lifetime.end.p0(i64 16, ptr %13) #12
  br label %78, !llvm.loop !491

99:                                               ; preds = %78
  %100 = load ptr, ptr %7, align 8, !tbaa !21
  %101 = getelementptr inbounds float, ptr %100, i64 -4
  store ptr %101, ptr %7, align 8, !tbaa !21
  br label %102

102:                                              ; preds = %106, %99
  %103 = load ptr, ptr %7, align 8, !tbaa !21
  %104 = load ptr, ptr %8, align 8, !tbaa !21
  %105 = icmp ult ptr %103, %104
  br i1 %105, label %106, label %124

106:                                              ; preds = %102
  call void @llvm.lifetime.start.p0(i64 4, ptr %14) #12
  %107 = load ptr, ptr %6, align 8, !tbaa !21
  call void asm sideeffect "", "r,~{dirflag},~{fpsr},~{flags}"(ptr %107) #12, !srcloc !492
  %108 = load ptr, ptr %6, align 8, !tbaa !21
  %109 = getelementptr inbounds float, ptr %108, i64 1
  %110 = load float, ptr %109, align 4, !tbaa !29
  store float %110, ptr %14, align 4, !tbaa !29
  %111 = load float, ptr %14, align 4, !tbaa !29
  %112 = load ptr, ptr %7, align 8, !tbaa !21
  %113 = getelementptr inbounds float, ptr %112, i64 0
  store float %111, ptr %113, align 4, !tbaa !29
  %114 = load ptr, ptr %6, align 8, !tbaa !21
  %115 = getelementptr inbounds float, ptr %114, i64 0
  %116 = load float, ptr %115, align 4, !tbaa !29
  store float %116, ptr %14, align 4, !tbaa !29
  %117 = load float, ptr %14, align 4, !tbaa !29
  %118 = load ptr, ptr %7, align 8, !tbaa !21
  %119 = getelementptr inbounds float, ptr %118, i64 1
  store float %117, ptr %119, align 4, !tbaa !29
  %120 = load ptr, ptr %7, align 8, !tbaa !21
  %121 = getelementptr inbounds float, ptr %120, i64 2
  store ptr %121, ptr %7, align 8, !tbaa !21
  %122 = load ptr, ptr %6, align 8, !tbaa !21
  %123 = getelementptr inbounds float, ptr %122, i64 2
  store ptr %123, ptr %6, align 8, !tbaa !21
  call void @llvm.lifetime.end.p0(i64 4, ptr %14) #12
  br label %102, !llvm.loop !493

124:                                              ; preds = %102
  store i32 0, ptr %12, align 4
  br label %125

125:                                              ; preds = %124, %74
  call void @llvm.lifetime.end.p0(i64 8, ptr %8) #12
  call void @llvm.lifetime.end.p0(i64 8, ptr %7) #12
  %126 = load i32, ptr %12, align 4
  switch i32 %126, label %128 [
    i32 0, label %127
    i32 1, label %127
  ]

127:                                              ; preds = %125, %125
  ret void

128:                                              ; preds = %125, %71
  unreachable
}