; Function Attrs: nounwind uwtable
define void @stbir__encode_float_linear_AR(ptr noundef writeonly captures(address) %0, i32 noundef %1, ptr noundef %2) #0 {
  %4 = sext i32 %1 to i64
  %.idx = shl nsw i64 %4, 2
  %5 = getelementptr inbounds i8, ptr %0, i64 %.idx
  %6 = icmp sgt i32 %1, 7
  br i1 %6, label %7, label %.preheader58

.preheader58:                                     ; preds = %3
  %.not60 = icmp slt i32 %1, 4
  br i1 %.not60, label %.preheader, label %.lr.ph.preheader

.lr.ph.preheader:                                 ; preds = %.preheader58
  %.24859 = getelementptr inbounds nuw i8, ptr %0, i64 16
  br label %.lr.ph

7:                                                ; preds = %3
  %8 = getelementptr inbounds nuw float, ptr %2, i64 %4
  %9 = getelementptr inbounds i8, ptr %8, i64 -32
  %10 = getelementptr inbounds i8, ptr %5, i64 -32
  br label %11

11:                                               ; preds = %11, %7
  %.046 = phi ptr [ %0, %7 ], [ %.147, %11 ]
  %.0 = phi ptr [ %2, %7 ], [ %.1, %11 ]
  tail call void asm sideeffect "", "r,~{dirflag},~{fpsr},~{flags}"(ptr %.0) #24, !srcloc !417
  %12 = load <4 x float>, ptr %.0, align 1, !tbaa !4
  %13 = getelementptr inbounds nuw i8, ptr %.0, i64 16
  %14 = load <4 x float>, ptr %13, align 1, !tbaa !4
  %15 = shufflevector <4 x float> %12, <4 x float> poison, <4 x i32> <i32 1, i32 0, i32 3, i32 2>
  %16 = shufflevector <4 x float> %14, <4 x float> poison, <4 x i32> <i32 1, i32 0, i32 3, i32 2>
  store <4 x float> %15, ptr %.046, align 1, !tbaa !4
  %17 = getelementptr inbounds nuw i8, ptr %.046, i64 16
  store <4 x float> %16, ptr %17, align 1, !tbaa !4
  %18 = getelementptr inbounds nuw i8, ptr %.0, i64 32
  %19 = getelementptr inbounds nuw i8, ptr %.046, i64 32
  %20 = icmp ult ptr %19, %10
  %21 = icmp eq ptr %19, %5
  %22 = or i1 %20, %21
  %.147 = select i1 %22, ptr %19, ptr %10
  %.1 = select i1 %22, ptr %18, ptr %9
  %not. = xor i1 %20, true
  %switch = select i1 %not., i1 %21, i1 false
  br i1 %switch, label %.loopexit, label %11

.preheader:                                       ; preds = %.lr.ph, %.preheader58
  %.pn.lcssa = phi ptr [ %0, %.preheader58 ], [ %.24863, %.lr.ph ]
  %.2.lcssa = phi ptr [ %2, %.preheader58 ], [ %26, %.lr.ph ]
  %23 = icmp ult ptr %.pn.lcssa, %5
  br i1 %23, label %.lr.ph67, label %.loopexit

.lr.ph:                                           ; preds = %.lr.ph.preheader, %.lr.ph
  %.24863 = phi ptr [ %.248, %.lr.ph ], [ %.24859, %.lr.ph.preheader ]
  %.262 = phi ptr [ %26, %.lr.ph ], [ %2, %.lr.ph.preheader ]
  %.pn61 = phi ptr [ %.24863, %.lr.ph ], [ %0, %.lr.ph.preheader ]
  tail call void asm sideeffect "", "r,~{dirflag},~{fpsr},~{flags}"(ptr %.262) #24, !srcloc !418
  %24 = load <4 x float>, ptr %.262, align 1, !tbaa !4
  %25 = shufflevector <4 x float> %24, <4 x float> poison, <4 x i32> <i32 1, i32 0, i32 3, i32 2>
  store <4 x float> %25, ptr %.pn61, align 1, !tbaa !4
  %26 = getelementptr inbounds nuw i8, ptr %.262, i64 16
  %.248 = getelementptr inbounds nuw i8, ptr %.24863, i64 16
  %.not = icmp ugt ptr %.248, %5
  br i1 %.not, label %.preheader, label %.lr.ph, !llvm.loop !419

.lr.ph67:                                         ; preds = %.preheader, %.lr.ph67
  %.366 = phi ptr [ %32, %.lr.ph67 ], [ %.2.lcssa, %.preheader ]
  %.34965 = phi ptr [ %31, %.lr.ph67 ], [ %.pn.lcssa, %.preheader ]
  tail call void asm sideeffect "", "r,~{dirflag},~{fpsr},~{flags}"(ptr %.366) #24, !srcloc !420
  %27 = getelementptr inbounds nuw i8, ptr %.366, i64 4
  %28 = load float, ptr %27, align 4, !tbaa !50
  store float %28, ptr %.34965, align 4, !tbaa !50
  %29 = load float, ptr %.366, align 4, !tbaa !50
  %30 = getelementptr inbounds nuw i8, ptr %.34965, i64 4
  store float %29, ptr %30, align 4, !tbaa !50
  %31 = getelementptr inbounds nuw i8, ptr %.34965, i64 8
  %32 = getelementptr inbounds nuw i8, ptr %.366, i64 8
  %33 = icmp ult ptr %31, %5
  br i1 %33, label %.lr.ph67, label %.loopexit, !llvm.loop !421

.loopexit:                                        ; preds = %.lr.ph67, %11, %.preheader
  ret void
}